target datalayout = "e-m:e-p270:32:32-p271:32:32-p272:64:64-i64:64-i128:128-f80:128-n8:16:32:64-S128"
target triple = "x86_64-pc-linux-gnu"

%class.QString = type { %struct.QArrayDataPointer }
%struct.QArrayDataPointer = type { ptr, ptr, i64 }
%class.QObject = type { ptr, %class.QScopedPointer }
%class.QScopedPointer = type { ptr }
%struct.nstime_t = type { i64, i32 }
%class.QBrush = type { %"class.std::unique_ptr" }
%"class.std::unique_ptr" = type { %"struct.std::__uniq_ptr_data" }
%"struct.std::__uniq_ptr_data" = type { %"class.std::__uniq_ptr_impl" }
%"class.std::__uniq_ptr_impl" = type { %"class.std::tuple" }
%"class.std::tuple" = type { %"struct.std::_Tuple_impl" }
%"struct.std::_Tuple_impl" = type { %"struct.std::_Head_base.28" }
%"struct.std::_Head_base.28" = type { ptr }
%class.IOGraph = type <{ %class.QObject, i32, i32, ptr, %class.QString, %class.QString, i8, i8, i8, [5 x i8], ptr, ptr, %class.QString, %class.QString, %class.QBrush, i32, [4 x i8], %class.QString, i32, i32, %struct.nstime_t, i8, [7 x i8], %"class.std::vector", i32, [4 x i8] }>
%"class.std::vector" = type { %"struct.std::_Vector_base" }
%"struct.std::_Vector_base" = type { %"struct.std::_Vector_base<_io_graph_item_t, std::allocator<_io_graph_item_t>>::_Vector_impl" }
%"struct.std::_Vector_base<_io_graph_item_t, std::allocator<_io_graph_item_t>>::_Vector_impl" = type { %"struct.std::_Vector_base<_io_graph_item_t, std::allocator<_io_graph_item_t>>::_Vector_impl_data" }
%"struct.std::_Vector_base<_io_graph_item_t, std::allocator<_io_graph_item_t>>::_Vector_impl_data" = type { ptr, ptr, ptr }
%class.QColor = type <{ i32, %"union.QColor::CT", [2 x i8] }>
%"union.QColor::CT" = type { %struct.anon }
%struct.anon = type { i16, i16, i16, i16, i16 }

; Function Attrs: mustprogress nounwind null_pointer_is_valid sspstrong uwtable
define linkonce_odr noundef align 1 dereferenceable(1) ptr @_ZNSt10_Head_baseILm1E24QBrushDataPointerDeleterLb1EE7_M_headERS1_(ptr noundef align 1 dereferenceable(1) %0) #7 comdat align 2 {
  %2 = alloca ptr, align 8
  store ptr %0, ptr %2, align 8
  %3 = load ptr, ptr %2, align 8
  ret ptr %3
}

; Function Attrs: mustprogress nounwind null_pointer_is_valid sspstrong uwtable
define linkonce_odr noundef align 8 dereferenceable(8) ptr @_ZNSt10_Head_baseILm0EP10QBrushDataLb0EE7_M_headERS2_(ptr noundef align 8 dereferenceable(8) %0) #7 comdat align 2 {
  %2 = alloca ptr, align 8
  store ptr %0, ptr %2, align 8
  %3 = load ptr, ptr %2, align 8
  %4 = getelementptr inbounds nuw %"struct.std::_Head_base.28", ptr %3, i32 0, i32 0
  ret ptr %4
}

; Function Attrs: mustprogress nounwind null_pointer_is_valid sspstrong uwtable
define linkonce_odr noundef align 1 dereferenceable(1) ptr @_ZNSt11_Tuple_implILm1EJ24QBrushDataPointerDeleterEE7_M_headERS1_(ptr noundef align 1 dereferenceable(1) %0) #7 comdat align 2 {
  %2 = alloca ptr, align 8
  store ptr %0, ptr %2, align 8
  %3 = load ptr, ptr %2, align 8
  %4 = call noundef align 1 dereferenceable(1) ptr @_ZNSt10_Head_baseILm1E24QBrushDataPointerDeleterLb1EE7_M_headERS1_(ptr noundef align 1 dereferenceable(1) %3) #2
  ret ptr %4
}

; Function Attrs: mustprogress nounwind null_pointer_is_valid sspstrong uwtable
define linkonce_odr noundef align 8 dereferenceable(8) ptr @_ZNSt11_Tuple_implILm0EJP10QBrushData24QBrushDataPointerDeleterEE7_M_headERS3_(ptr noundef align 8 dereferenceable(8) %0) #7 comdat align 2 {
  %2 = alloca ptr, align 8
  store ptr %0, ptr %2, align 8
  %3 = load ptr, ptr %2, align 8
  %4 = call noundef align 8 dereferenceable(8) ptr @_ZNSt10_Head_baseILm0EP10QBrushDataLb0EE7_M_headERS2_(ptr noundef align 8 dereferenceable(8) %3) #2
  ret ptr %4
}

; Function Attrs: mustprogress nounwind null_pointer_is_valid sspstrong uwtable
define linkonce_odr noundef align 1 dereferenceable(1) ptr @_ZSt12__get_helperILm1E24QBrushDataPointerDeleterJEERT0_RSt11_Tuple_implIXT_EJS1_DpT1_EE(ptr noundef align 1 dereferenceable(1) %0) #7 comdat {
  %2 = alloca ptr, align 8
  store ptr %0, ptr %2, align 8
  %3 = load ptr, ptr %2, align 8
  %4 = call noundef align 1 dereferenceable(1) ptr @_ZNSt11_Tuple_implILm1EJ24QBrushDataPointerDeleterEE7_M_headERS1_(ptr noundef align 1 dereferenceable(1) %3) #2
  ret ptr %4
}

; Function Attrs: mustprogress nounwind null_pointer_is_valid sspstrong uwtable
define linkonce_odr noundef align 8 dereferenceable(8) ptr @_ZSt12__get_helperILm0EP10QBrushDataJ24QBrushDataPointerDeleterEERT0_RSt11_Tuple_implIXT_EJS3_DpT1_EE(ptr noundef align 8 dereferenceable(8) %0) #7 comdat {
  %2 = alloca ptr, align 8
  store ptr %0, ptr %2, align 8
  %3 = load ptr, ptr %2, align 8
  %4 = call noundef align 8 dereferenceable(8) ptr @_ZNSt11_Tuple_implILm0EJP10QBrushData24QBrushDataPointerDeleterEE7_M_headERS3_(ptr noundef align 8 dereferenceable(8) %3) #2
  ret ptr %4
}

; Function Attrs: mustprogress nounwind null_pointer_is_valid sspstrong uwtable
define linkonce_odr noundef align 1 dereferenceable(1) ptr @_ZSt3getILm1EJP10QBrushData24QBrushDataPointerDeleterEERNSt13tuple_elementIXT_ESt5tupleIJDpT0_EEE4typeERS7_(ptr noundef align 8 dereferenceable(8) %0) #7 comdat {
  %2 = alloca ptr, align 8
  store ptr %0, ptr %2, align 8
  %3 = load ptr, ptr %2, align 8
  %4 = call noundef align 1 dereferenceable(1) ptr @_ZSt12__get_helperILm1E24QBrushDataPointerDeleterJEERT0_RSt11_Tuple_implIXT_EJS1_DpT1_EE(ptr noundef align 1 dereferenceable(1) %3) #2
  ret ptr %4
}

; Function Attrs: mustprogress nounwind null_pointer_is_valid sspstrong uwtable
define linkonce_odr noundef align 8 dereferenceable(8) ptr @_ZSt3getILm0EJP10QBrushData24QBrushDataPointerDeleterEERNSt13tuple_elementIXT_ESt5tupleIJDpT0_EEE4typeERS7_(ptr noundef align 8 dereferenceable(8) %0) #7 comdat {
  %2 = alloca ptr, align 8
  store ptr %0, ptr %2, align 8
  %3 = load ptr, ptr %2, align 8
  %4 = call noundef align 8 dereferenceable(8) ptr @_ZSt12__get_helperILm0EP10QBrushDataJ24QBrushDataPointerDeleterEERT0_RSt11_Tuple_implIXT_EJS3_DpT1_EE(ptr noundef align 8 dereferenceable(8) %3) #2
  ret ptr %4
}

; Function Attrs: inlinehint mustprogress nounwind null_pointer_is_valid sspstrong uwtable
define linkonce_odr void @_ZSt4swapI24QBrushDataPointerDeleterENSt9enable_ifIXsr6__and_ISt6__not_ISt15__is_tuple_likeIT_EESt21is_move_constructibleIS4_ESt18is_move_assignableIS4_EEE5valueEvE4typeERS4_SD_(ptr noundef align 1 dereferenceable(1) %0, ptr noundef align 1 dereferenceable(1) %1) #1 comdat {
  %3 = alloca ptr, align 8
  %4 = alloca ptr, align 8
  store ptr %0, ptr %3, align 8
  store ptr %1, ptr %4, align 8
  ret void
}

; Function Attrs: mustprogress nounwind null_pointer_is_valid sspstrong uwtable
define linkonce_odr noundef align 1 dereferenceable(1) ptr @_ZNSt15__uniq_ptr_implI10QBrushData24QBrushDataPointerDeleterE10_M_deleterEv(ptr noundef align 8 dereferenceable_or_null(8) %0) #7 comdat align 2 {
  %2 = alloca ptr, align 8
  store ptr %0, ptr %2, align 8
  %3 = load ptr, ptr %2, align 8
  %4 = getelementptr inbounds nuw %"class.std::__uniq_ptr_impl", ptr %3, i32 0, i32 0
  %5 = call noundef align 1 dereferenceable(1) ptr @_ZSt3getILm1EJP10QBrushData24QBrushDataPointerDeleterEERNSt13tuple_elementIXT_ESt5tupleIJDpT0_EEE4typeERS7_(ptr noundef align 8 dereferenceable(8) %4) #2
  ret ptr %5
}

; Function Attrs: inlinehint mustprogress nounwind null_pointer_is_valid sspstrong uwtable
define linkonce_odr void @_ZSt4swapIP10QBrushDataENSt9enable_ifIXsr6__and_ISt6__not_ISt15__is_tuple_likeIT_EESt21is_move_constructibleIS5_ESt18is_move_assignableIS5_EEE5valueEvE4typeERS5_SE_(ptr noundef align 8 dereferenceable(8) %0, ptr noundef align 8 dereferenceable(8) %1) #1 comdat {
  %3 = alloca ptr, align 8
  %4 = alloca ptr, align 8
  %5 = alloca ptr, align 8
  store ptr %0, ptr %3, align 8
  store ptr %1, ptr %4, align 8
  call void @llvm.lifetime.start.p0(i64 8, ptr %5) #2
  %6 = load ptr, ptr %3, align 8
  %7 = load ptr, ptr %6, align 8
  store ptr %7, ptr %5, align 8
  %8 = load ptr, ptr %4, align 8
  %9 = load ptr, ptr %8, align 8
  %10 = load ptr, ptr %3, align 8
  store ptr %9, ptr %10, align 8
  %11 = load ptr, ptr %5, align 8
  %12 = load ptr, ptr %4, align 8
  store ptr %11, ptr %12, align 8
  call void @llvm.lifetime.end.p0(i64 8, ptr %5) #2
  ret void
}

; Function Attrs: mustprogress nounwind null_pointer_is_valid sspstrong uwtable
define linkonce_odr noundef align 8 dereferenceable(8) ptr @_ZNSt15__uniq_ptr_implI10QBrushData24QBrushDataPointerDeleterE6_M_ptrEv(ptr noundef align 8 dereferenceable_or_null(8) %0) #7 comdat align 2 {
  %2 = alloca ptr, align 8
  store ptr %0, ptr %2, align 8
  %3 = load ptr, ptr %2, align 8
  %4 = getelementptr inbounds nuw %"class.std::__uniq_ptr_impl", ptr %3, i32 0, i32 0
  %5 = call noundef align 8 dereferenceable(8) ptr @_ZSt3getILm0EJP10QBrushData24QBrushDataPointerDeleterEERNSt13tuple_elementIXT_ESt5tupleIJDpT0_EEE4typeERS7_(ptr noundef align 8 dereferenceable(8) %4) #2
  ret ptr %5
}

; Function Attrs: mustprogress nounwind null_pointer_is_valid sspstrong uwtable
define linkonce_odr void @_ZNSt15__uniq_ptr_implI10QBrushData24QBrushDataPointerDeleterE4swapERS2_(ptr noundef align 8 dereferenceable_or_null(8) %0, ptr noundef align 8 dereferenceable(8) %1) #7 comdat align 2 {
  %3 = alloca ptr, align 8
  %4 = alloca ptr, align 8
  store ptr %0, ptr %3, align 8
  store ptr %1, ptr %4, align 8
  %5 = load ptr, ptr %3, align 8
  %6 = call noundef align 8 dereferenceable(8) ptr @_ZNSt15__uniq_ptr_implI10QBrushData24QBrushDataPointerDeleterE6_M_ptrEv(ptr noundef align 8 dereferenceable_or_null(8) %5) #2
  %7 = load ptr, ptr %4, align 8
  %8 = call noundef align 8 dereferenceable(8) ptr @_ZNSt15__uniq_ptr_implI10QBrushData24QBrushDataPointerDeleterE6_M_ptrEv(ptr noundef align 8 dereferenceable_or_null(8) %7) #2
  call void @_ZSt4swapIP10QBrushDataENSt9enable_ifIXsr6__and_ISt6__not_ISt15__is_tuple_likeIT_EESt21is_move_constructibleIS5_ESt18is_move_assignableIS5_EEE5valueEvE4typeERS5_SE_(ptr noundef align 8 dereferenceable(8) %6, ptr noundef align 8 dereferenceable(8) %8) #2
  %9 = call noundef align 1 dereferenceable(1) ptr @_ZNSt15__uniq_ptr_implI10QBrushData24QBrushDataPointerDeleterE10_M_deleterEv(ptr noundef align 8 dereferenceable_or_null(8) %5) #2
  %10 = load ptr, ptr %4, align 8
  %11 = call noundef align 1 dereferenceable(1) ptr @_ZNSt15__uniq_ptr_implI10QBrushData24QBrushDataPointerDeleterE10_M_deleterEv(ptr noundef align 8 dereferenceable_or_null(8) %10) #2
  call void @_ZSt4swapI24QBrushDataPointerDeleterENSt9enable_ifIXsr6__and_ISt6__not_ISt15__is_tuple_likeIT_EESt21is_move_constructibleIS4_ESt18is_move_assignableIS4_EEE5valueEvE4typeERS4_SD_(ptr noundef align 1 dereferenceable(1) %9, ptr noundef align 1 dereferenceable(1) %11) #2
  ret void
}

; Function Attrs: mustprogress nounwind null_pointer_is_valid sspstrong uwtable
define linkonce_odr void @_ZNSt10unique_ptrI10QBrushData24QBrushDataPointerDeleterE4swapERS2_(ptr noundef align 8 dereferenceable_or_null(8) %0, ptr noundef align 8 dereferenceable(8) %1) #7 comdat align 2 {
  %3 = alloca ptr, align 8
  %4 = alloca ptr, align 8
  store ptr %0, ptr %3, align 8
  store ptr %1, ptr %4, align 8
  %5 = load ptr, ptr %3, align 8
  %6 = getelementptr inbounds nuw %"class.std::unique_ptr", ptr %5, i32 0, i32 0
  %7 = load ptr, ptr %4, align 8
  %8 = getelementptr inbounds nuw %"class.std::unique_ptr", ptr %7, i32 0, i32 0
  call void @_ZNSt15__uniq_ptr_implI10QBrushData24QBrushDataPointerDeleterE4swapERS2_(ptr noundef align 8 dereferenceable_or_null(8) %6, ptr noundef align 8 dereferenceable(8) %8) #2
  ret void
}

; Function Attrs: inlinehint mustprogress nounwind null_pointer_is_valid sspstrong uwtable
define linkonce_odr void @_ZSt4swapI10QBrushData24QBrushDataPointerDeleterENSt9enable_ifIXsr14__is_swappableIT0_EE5valueEvE4typeERSt10unique_ptrIT_S3_ES9_(ptr noundef align 8 dereferenceable(8) %0, ptr noundef align 8 dereferenceable(8) %1) #1 comdat {
  %3 = alloca ptr, align 8
  %4 = alloca ptr, align 8
  store ptr %0, ptr %3, align 8
  store ptr %1, ptr %4, align 8
  %5 = load ptr, ptr %3, align 8
  %6 = load ptr, ptr %4, align 8
  call void @_ZNSt10unique_ptrI10QBrushData24QBrushDataPointerDeleterE4swapERS2_(ptr noundef align 8 dereferenceable_or_null(8) %5, ptr noundef align 8 dereferenceable(8) %6) #2
  ret void
}

; Function Attrs: mustprogress nounwind null_pointer_is_valid sspstrong uwtable
define linkonce_odr void @_Z5qSwapISt10unique_ptrI10QBrushData24QBrushDataPointerDeleterEEvRT_S5_(ptr noundef align 8 dereferenceable(8) %0, ptr noundef align 8 dereferenceable(8) %1) #7 comdat {
  %3 = alloca ptr, align 8
  %4 = alloca ptr, align 8
  store ptr %0, ptr %3, align 8
  store ptr %1, ptr %4, align 8
  %5 = load ptr, ptr %3, align 8
  %6 = load ptr, ptr %4, align 8
  call void @_ZSt4swapI10QBrushData24QBrushDataPointerDeleterENSt9enable_ifIXsr14__is_swappableIT0_EE5valueEvE4typeERSt10unique_ptrIT_S3_ES9_(ptr noundef align 8 dereferenceable(8) %5, ptr noundef align 8 dereferenceable(8) %6) #2
  ret void
}

; Function Attrs: inlinehint mustprogress nounwind null_pointer_is_valid sspstrong uwtable
define linkonce_odr void @_ZN6QBrush4swapERS_(ptr noundef align 8 dereferenceable_or_null(8) %0, ptr noundef align 8 dereferenceable(8) %1) #1 comdat align 2 {
  %3 = alloca ptr, align 8
  %4 = alloca ptr, align 8
  store ptr %0, ptr %3, align 8
  store ptr %1, ptr %4, align 8
  %5 = load ptr, ptr %3, align 8
  %6 = getelementptr inbounds nuw %class.QBrush, ptr %5, i32 0, i32 0
  %7 = load ptr, ptr %4, align 8
  %8 = getelementptr inbounds nuw %class.QBrush, ptr %7, i32 0, i32 0
  call void @_Z5qSwapISt10unique_ptrI10QBrushData24QBrushDataPointerDeleterEEvRT_S5_(ptr noundef align 8 dereferenceable(8) %6, ptr noundef align 8 dereferenceable(8) %8) #2
  ret void
}

; Function Attrs: mustprogress nounwind null_pointer_is_valid sspstrong uwtable
define linkonce_odr noundef align 8 dereferenceable(8) ptr @_ZN6QBrushaSEOS_(ptr noundef align 8 dereferenceable_or_null(8) %0, ptr noundef align 8 dereferenceable(8) %1) #7 comdat align 2 {
  %3 = alloca ptr, align 8
  %4 = alloca ptr, align 8
  store ptr %0, ptr %3, align 8
  store ptr %1, ptr %4, align 8
  %5 = load ptr, ptr %3, align 8
  %6 = load ptr, ptr %4, align 8
  call void @_ZN6QBrush4swapERS_(ptr noundef align 8 dereferenceable_or_null(8) %5, ptr noundef align 8 dereferenceable(8) %6) #2
  ret ptr %5
}

; Function Attrs: mustprogress null_pointer_is_valid sspstrong uwtable
define void @_ZN7IOGraph8setColorEj(ptr noundef align 8 dereferenceable_or_null(252) %0, i32 noundef %1) #3 align 2 {
  %3 = alloca ptr, align 8
  %4 = alloca i32, align 4
  %5 = alloca %class.QBrush, align 8
  %6 = alloca %class.QColor, align 4
  store ptr %0, ptr %3, align 8
  store i32 %1, ptr %4, align 4
  %7 = load ptr, ptr %3, align 8
  call void @llvm.lifetime.start.p0(i64 8, ptr %5) #2
  call void @llvm.lifetime.start.p0(i64 16, ptr %6) #2
  %8 = load i32, ptr %4, align 4
  call void @_ZN6QColorC1Ej(ptr noundef align 4 dereferenceable_or_null(14) %6, i32 noundef %8) #2
  call void @_ZN6QBrushC1ERK6QColorN2Qt10BrushStyleE(ptr noundef align 8 dereferenceable_or_null(8) %5, ptr noundef align 4 dereferenceable(14) %6, i32 noundef 1)
  %9 = getelementptr inbounds nuw %class.IOGraph, ptr %7, i32 0, i32 14
  %10 = call noundef align 8 dereferenceable(8) ptr @_ZN6QBrushaSEOS_(ptr noundef align 8 dereferenceable_or_null(8) %9, ptr noundef align 8 dereferenceable(8) %5) #2
  call void @_ZN6QBrushD1Ev(ptr noundef align 8 dereferenceable_or_null(8) %5) #2
  call void @llvm.lifetime.end.p0(i64 16, ptr %6) #2
  call void @llvm.lifetime.end.p0(i64 8, ptr %5) #2
  call void @_ZN7IOGraph17applyCurrentColorEv(ptr noundef align 8 dereferenceable_or_null(252) %7)
  ret void
}