; Function Attrs: mustprogress null_pointer_is_valid sspstrong uwtable
define void @_ZN7IOGraph8setColorEj(ptr noundef align 8 dereferenceable_or_null(252) %0, i32 noundef %1) local_unnamed_addr #2 align 2 {
  %3 = alloca %class.QBrush, align 8
  %4 = alloca %class.QColor, align 4
  call void @llvm.lifetime.start.p0(i64 8, ptr nonnull %3) #33
  call void @llvm.lifetime.start.p0(i64 16, ptr nonnull %4) #33
  call void @_ZN6QColorC1Ej(ptr noundef nonnull align 4 dereferenceable_or_null(14) %4, i32 noundef %1) #33
  call void @_ZN6QBrushC1ERK6QColorN2Qt10BrushStyleE(ptr noundef nonnull align 8 dereferenceable_or_null(8) %3, ptr noundef nonnull align 4 dereferenceable(14) %4, i32 noundef 1)
  %5 = getelementptr inbounds nuw i8, ptr %0, i64 152
  %6 = load ptr, ptr %5, align 8
  %7 = load ptr, ptr %3, align 8
  store ptr %7, ptr %5, align 8
  store ptr %6, ptr %3, align 8
  call void @_ZN6QBrushD1Ev(ptr noundef nonnull align 8 dereferenceable_or_null(8) %3) #33
  call void @llvm.lifetime.end.p0(i64 16, ptr nonnull %4) #33
  call void @llvm.lifetime.end.p0(i64 8, ptr nonnull %3) #33
  call void @_ZN7IOGraph17applyCurrentColorEv(ptr noundef align 8 dereferenceable_or_null(252) %0)
  ret void
}